target datalayout = "e-m:e-p270:32:32-p271:32:32-p272:64:64-i64:64-i128:128-f80:128-n8:16:32:64-S128"
target triple = "x86_64-pc-linux-gnu"

%struct.hashfile = type { i32, i32, i32, %union.git_hash_ctx, i64, ptr, ptr, i32, i32, i64, ptr, ptr, ptr, i32 }
%union.git_hash_ctx = type { %struct.SHA1_CTX }
%struct.SHA1_CTX = type { i64, [5 x i32], [64 x i8], i32, i32, i32, i32, i32, ptr, [5 x i32], [5 x i32], [80 x i32], [80 x i32], [80 x [5 x i32]] }

@.str.4 = private unnamed_addr constant [45 x i8] c"sha1 file '%s' write error. Out of diskspace\00", align 1
@.str.5 = private unnamed_addr constant [27 x i8] c"sha1 file '%s' write error\00", align 1
@.str.6 = private unnamed_addr constant [25 x i8] c"%s: sha1 file read error\00", align 1
@.str.7 = private unnamed_addr constant [24 x i8] c"%s: sha1 file truncated\00", align 1
@.str.8 = private unnamed_addr constant [32 x i8] c"sha1 file '%s' validation error\00", align 1

; Function Attrs: nounwind uwtable
define internal void @verify_buffer_or_die(ptr noundef %0, ptr noundef %1, i32 noundef %2) #0 {
  %4 = alloca ptr, align 8
  %5 = alloca ptr, align 8
  %6 = alloca i32, align 4
  %7 = alloca i64, align 8
  store ptr %0, ptr %4, align 8, !tbaa !4
  store ptr %1, ptr %5, align 8, !tbaa !23
  store i32 %2, ptr %6, align 4, !tbaa !16
  call void @llvm.lifetime.start.p0(i64 8, ptr %7) #10
  %8 = load ptr, ptr %4, align 8, !tbaa !4
  %9 = getelementptr inbounds nuw %struct.hashfile, ptr %8, i32 0, i32 1
  %10 = load i32, ptr %9, align 4, !tbaa !24
  %11 = load ptr, ptr %4, align 8, !tbaa !4
  %12 = getelementptr inbounds nuw %struct.hashfile, ptr %11, i32 0, i32 11
  %13 = load ptr, ptr %12, align 8, !tbaa !29
  %14 = load i32, ptr %6, align 4, !tbaa !16
  %15 = zext i32 %14 to i64
  %16 = call i64 @read_in_full(i32 noundef %10, ptr noundef %13, i64 noundef %15)
  store i64 %16, ptr %7, align 8, !tbaa !40
  %17 = load i64, ptr %7, align 8, !tbaa !40
  %18 = icmp slt i64 %17, 0
  br i1 %18, label %19, label %23

19:                                               ; preds = %3
  %20 = load ptr, ptr %4, align 8, !tbaa !4
  %21 = getelementptr inbounds nuw %struct.hashfile, ptr %20, i32 0, i32 6
  %22 = load ptr, ptr %21, align 8, !tbaa !26
  call void (ptr, ...) @die_errno(ptr noundef @.str.6, ptr noundef %22) #12
  unreachable

23:                                               ; preds = %3
  %24 = load i64, ptr %7, align 8, !tbaa !40
  %25 = load i32, ptr %6, align 4, !tbaa !16
  %26 = zext i32 %25 to i64
  %27 = icmp ne i64 %24, %26
  br i1 %27, label %28, label %32

28:                                               ; preds = %23
  %29 = load ptr, ptr %4, align 8, !tbaa !4
  %30 = getelementptr inbounds nuw %struct.hashfile, ptr %29, i32 0, i32 6
  %31 = load ptr, ptr %30, align 8, !tbaa !26
  call void (ptr, ...) @die(ptr noundef @.str.7, ptr noundef %31) #12
  unreachable

32:                                               ; preds = %23
  %33 = load ptr, ptr %5, align 8, !tbaa !23
  %34 = load ptr, ptr %4, align 8, !tbaa !4
  %35 = getelementptr inbounds nuw %struct.hashfile, ptr %34, i32 0, i32 11
  %36 = load ptr, ptr %35, align 8, !tbaa !29
  %37 = load i32, ptr %6, align 4, !tbaa !16
  %38 = zext i32 %37 to i64
  %39 = call i32 @memcmp(ptr noundef %33, ptr noundef %36, i64 noundef %38) #13
  %40 = icmp ne i32 %39, 0
  br i1 %40, label %41, label %45

41:                                               ; preds = %32
  %42 = load ptr, ptr %4, align 8, !tbaa !4
  %43 = getelementptr inbounds nuw %struct.hashfile, ptr %42, i32 0, i32 6
  %44 = load ptr, ptr %43, align 8, !tbaa !26
  call void (ptr, ...) @die(ptr noundef @.str.8, ptr noundef %44) #12
  unreachable

45:                                               ; preds = %32
  call void @llvm.lifetime.end.p0(i64 8, ptr %7) #10
  ret void
}

; Function Attrs: nounwind uwtable
define internal void @flush(ptr noundef %0, ptr noundef %1, i32 noundef %2) #0 {
  %4 = alloca ptr, align 8
  %5 = alloca ptr, align 8
  %6 = alloca i32, align 4
  store ptr %0, ptr %4, align 8, !tbaa !4
  store ptr %1, ptr %5, align 8, !tbaa !23
  store i32 %2, ptr %6, align 4, !tbaa !16
  %7 = load ptr, ptr %4, align 8, !tbaa !4
  %8 = getelementptr inbounds nuw %struct.hashfile, ptr %7, i32 0, i32 1
  %9 = load i32, ptr %8, align 4, !tbaa !24
  %10 = icmp sle i32 0, %9
  br i1 %10, label %11, label %18

11:                                               ; preds = %3
  %12 = load i32, ptr %6, align 4, !tbaa !16
  %13 = icmp ne i32 %12, 0
  br i1 %13, label %14, label %18

14:                                               ; preds = %11
  %15 = load ptr, ptr %4, align 8, !tbaa !4
  %16 = load ptr, ptr %5, align 8, !tbaa !23
  %17 = load i32, ptr %6, align 4, !tbaa !16
  call void @verify_buffer_or_die(ptr noundef %15, ptr noundef %16, i32 noundef %17)
  br label %18

18:                                               ; preds = %14, %11, %3
  %19 = load ptr, ptr %4, align 8, !tbaa !4
  %20 = getelementptr inbounds nuw %struct.hashfile, ptr %19, i32 0, i32 0
  %21 = load i32, ptr %20, align 8, !tbaa !25
  %22 = load ptr, ptr %5, align 8, !tbaa !23
  %23 = load i32, ptr %6, align 4, !tbaa !16
  %24 = zext i32 %23 to i64
  %25 = call i64 @write_in_full(i32 noundef %21, ptr noundef %22, i64 noundef %24)
  %26 = icmp slt i64 %25, 0
  br i1 %26, label %27, label %39

27:                                               ; preds = %18
  %28 = call ptr @__errno_location() #11
  %29 = load i32, ptr %28, align 4, !tbaa !16
  %30 = icmp eq i32 %29, 28
  br i1 %30, label %31, label %35

31:                                               ; preds = %27
  %32 = load ptr, ptr %4, align 8, !tbaa !4
  %33 = getelementptr inbounds nuw %struct.hashfile, ptr %32, i32 0, i32 6
  %34 = load ptr, ptr %33, align 8, !tbaa !26
  call void (ptr, ...) @die(ptr noundef @.str.4, ptr noundef %34) #12
  unreachable

35:                                               ; preds = %27
  %36 = load ptr, ptr %4, align 8, !tbaa !4
  %37 = getelementptr inbounds nuw %struct.hashfile, ptr %36, i32 0, i32 6
  %38 = load ptr, ptr %37, align 8, !tbaa !26
  call void (ptr, ...) @die_errno(ptr noundef @.str.5, ptr noundef %38) #12
  unreachable

39:                                               ; preds = %18
  %40 = load i32, ptr %6, align 4, !tbaa !16
  %41 = zext i32 %40 to i64
  %42 = load ptr, ptr %4, align 8, !tbaa !4
  %43 = getelementptr inbounds nuw %struct.hashfile, ptr %42, i32 0, i32 4
  %44 = load i64, ptr %43, align 8, !tbaa !27
  %45 = add nsw i64 %44, %41
  store i64 %45, ptr %43, align 8, !tbaa !27
  %46 = load ptr, ptr %4, align 8, !tbaa !4
  %47 = getelementptr inbounds nuw %struct.hashfile, ptr %46, i32 0, i32 5
  %48 = load ptr, ptr %47, align 8, !tbaa !28
  %49 = load ptr, ptr %4, align 8, !tbaa !4
  %50 = getelementptr inbounds nuw %struct.hashfile, ptr %49, i32 0, i32 4
  %51 = load i64, ptr %50, align 8, !tbaa !27
  call void @display_throughput(ptr noundef %48, i64 noundef %51)
  ret void
}