; Function Attrs: nounwind uwtable
define internal fastcc void @flush(ptr noundef captures(none) %0, ptr noundef %1, i32 noundef %2) unnamed_addr #0 {
  %4 = getelementptr inbounds nuw i8, ptr %0, i64 4
  %5 = load i32, ptr %4, align 4, !tbaa !20
  %6 = icmp sgt i32 %5, -1
  %7 = icmp ne i32 %2, 0
  %or.cond = and i1 %7, %6
  br i1 %or.cond, label %8, label %.verify_buffer_or_die.exit_crit_edge

.verify_buffer_or_die.exit_crit_edge:             ; preds = %3
  %.pre = zext i32 %2 to i64
  br label %verify_buffer_or_die.exit

8:                                                ; preds = %3
  %9 = getelementptr inbounds nuw i8, ptr %0, i64 2464
  %10 = load ptr, ptr %9, align 8, !tbaa !21
  %11 = zext i32 %2 to i64
  %12 = tail call i64 @read_in_full(i32 noundef %5, ptr noundef %10, i64 noundef %11) #13
  %13 = icmp slt i64 %12, 0
  br i1 %13, label %14, label %17

14:                                               ; preds = %8
  %15 = getelementptr inbounds nuw i8, ptr %0, i64 2432
  %16 = load ptr, ptr %15, align 8, !tbaa !22
  tail call void (ptr, ...) @die_errno(ptr noundef nonnull @.str.6, ptr noundef %16) #14
  unreachable

17:                                               ; preds = %8
  %.not.i = icmp eq i64 %12, %11
  br i1 %.not.i, label %21, label %18

18:                                               ; preds = %17
  %19 = getelementptr inbounds nuw i8, ptr %0, i64 2432
  %20 = load ptr, ptr %19, align 8, !tbaa !22
  tail call void (ptr, ...) @die(ptr noundef nonnull @.str.7, ptr noundef %20) #14
  unreachable

21:                                               ; preds = %17
  %22 = load ptr, ptr %9, align 8, !tbaa !21
  %bcmp.i = tail call i32 @bcmp(ptr noundef nonnull readonly dereferenceable(1) %1, ptr noundef nonnull dereferenceable(1) %22, i64 %11)
  %.not12.i = icmp eq i32 %bcmp.i, 0
  br i1 %.not12.i, label %verify_buffer_or_die.exit, label %23

23:                                               ; preds = %21
  %24 = getelementptr inbounds nuw i8, ptr %0, i64 2432
  %25 = load ptr, ptr %24, align 8, !tbaa !22
  tail call void (ptr, ...) @die(ptr noundef nonnull @.str.8, ptr noundef %25) #14
  unreachable

verify_buffer_or_die.exit:                        ; preds = %.verify_buffer_or_die.exit_crit_edge, %21
  %.pre-phi = phi i64 [ %.pre, %.verify_buffer_or_die.exit_crit_edge ], [ %11, %21 ]
  %26 = load i32, ptr %0, align 8, !tbaa !23
  %27 = tail call i64 @write_in_full(i32 noundef %26, ptr noundef %1, i64 noundef %.pre-phi) #13
  %28 = icmp slt i64 %27, 0
  br i1 %28, label %29, label %37

29:                                               ; preds = %verify_buffer_or_die.exit
  %30 = tail call ptr @__errno_location() #15
  %31 = load i32, ptr %30, align 4, !tbaa !24
  %32 = icmp eq i32 %31, 28
  %33 = getelementptr inbounds nuw i8, ptr %0, i64 2432
  %34 = load ptr, ptr %33, align 8, !tbaa !22
  br i1 %32, label %35, label %36

35:                                               ; preds = %29
  tail call void (ptr, ...) @die(ptr noundef nonnull @.str.4, ptr noundef %34) #14
  unreachable

36:                                               ; preds = %29
  tail call void (ptr, ...) @die_errno(ptr noundef nonnull @.str.5, ptr noundef %34) #14
  unreachable

37:                                               ; preds = %verify_buffer_or_die.exit
  %38 = getelementptr inbounds nuw i8, ptr %0, i64 2416
  %39 = load i64, ptr %38, align 8, !tbaa !25
  %40 = add nsw i64 %39, %.pre-phi
  store i64 %40, ptr %38, align 8, !tbaa !25
  %41 = getelementptr inbounds nuw i8, ptr %0, i64 2424
  %42 = load ptr, ptr %41, align 8, !tbaa !26
  tail call void @display_throughput(ptr noundef %42, i64 noundef %40) #13
  ret void
}